target datalayout = "e-m:e-p270:32:32-p271:32:32-p272:64:64-i64:64-i128:128-f80:128-n8:16:32:64-S128"
target triple = "x86_64-pc-linux-gnu"

%"class.icu_77::RegexCompile" = type { ptr, ptr, ptr, ptr, i64, i8, i8, i8, i64, i64, i32, i32, %"struct.icu_77::RegexCompile::RegexPatternChar", [100 x i16], i32, i32, i32, i8, %"class.icu_77::UnicodeString", i64, %"class.icu_77::UVector32", i32, i32, i32, i32, %"class.icu_77::UStack", %"class.icu_77::UStack", i32, ptr }
%"struct.icu_77::RegexCompile::RegexPatternChar" = type { i32, i8 }
%"class.icu_77::UnicodeString" = type { %"class.icu_77::Replaceable", %"union.icu_77::UnicodeString::StackBufferOrFields" }
%"class.icu_77::Replaceable" = type { %"class.icu_77::UObject" }
%"class.icu_77::UObject" = type { ptr }
%"union.icu_77::UnicodeString::StackBufferOrFields" = type { %struct.anon.0, [32 x i8] }
%struct.anon.0 = type { i16, i32, i32, ptr }
%"class.icu_77::UVector32" = type { %"class.icu_77::UObject", i32, i32, i32, ptr }
%"class.icu_77::UStack" = type { %"class.icu_77::UVector" }
%"class.icu_77::UVector" = type { %"class.icu_77::UObject", i32, i32, ptr, ptr, ptr }
%"class.icu_77::RegexPattern" = type { %"class.icu_77::UObject", ptr, ptr, i32, ptr, %"class.icu_77::UnicodeString", ptr, ptr, i32, i32, i32, i32, ptr, i32, i32, i32, ptr, i32, ptr, i8, ptr }
%struct.UText = type { i32, i32, i32, i32, i64, i32, i32, i64, i32, i32, ptr, ptr, ptr, ptr, ptr, ptr, ptr, ptr, i64, i32, i32, i64, i32, i32 }

; Function Attrs: inlinehint mustprogress nounwind uwtable
define internal noundef signext i8 @_ZL9U_SUCCESS10UErrorCode(i32 noundef %0) #2 {
  %2 = alloca i32, align 4
  store i32 %0, ptr %2, align 4, !tbaa !15
  %3 = load i32, ptr %2, align 4, !tbaa !15
  %4 = icmp sle i32 %3, 0
  %5 = zext i1 %4 to i8
  ret i8 %5
}

; Function Attrs: mustprogress uwtable
define void @_ZN6icu_7712RegexCompile7compileERKNS_13UnicodeStringER11UParseErrorR10UErrorCode(ptr noundef nonnull align 8 dereferenceable(512) %0, ptr noundef nonnull align 8 dereferenceable(64) %1, ptr noundef nonnull align 4 dereferenceable(72) %2, ptr noundef nonnull align 4 dereferenceable(4) %3) #1 align 2 personality ptr @__gxx_personality_v0 {
  %5 = alloca ptr, align 8
  %6 = alloca ptr, align 8
  %7 = alloca ptr, align 8
  %8 = alloca ptr, align 8
  %9 = alloca i1, align 1
  %10 = alloca ptr, align 8
  %11 = alloca i32, align 4
  %12 = alloca %struct.UText, align 8
  store ptr %0, ptr %5, align 8, !tbaa !23
  store ptr %1, ptr %6, align 8, !tbaa !65
  store ptr %2, ptr %7, align 8, !tbaa !67
  store ptr %3, ptr %8, align 8, !tbaa !22
  %13 = load ptr, ptr %5, align 8
  %14 = call noundef ptr @_ZN6icu_777UMemorynwEm(i64 noundef 64) #13
  %15 = icmp eq ptr %14, null
  store i1 false, ptr %9, align 1
  br i1 %15, label %19, label %16

16:                                               ; preds = %4
  store i1 true, ptr %9, align 1
  %17 = load ptr, ptr %6, align 8, !tbaa !65
  invoke void @_ZN6icu_7713UnicodeStringC1ERKS0_(ptr noundef nonnull align 8 dereferenceable(64) %14, ptr noundef nonnull align 8 dereferenceable(64) %17)
          to label %18 unwind label %40

18:                                               ; preds = %16
  br label %19

19:                                               ; preds = %18, %4
  %20 = phi ptr [ %14, %18 ], [ null, %4 ]
  %21 = getelementptr inbounds nuw %"class.icu_77::RegexCompile", ptr %13, i32 0, i32 2
  %22 = load ptr, ptr %21, align 8, !tbaa !41
  %23 = getelementptr inbounds nuw %"class.icu_77::RegexPattern", ptr %22, i32 0, i32 2
  store ptr %20, ptr %23, align 8, !tbaa !68
  call void @llvm.lifetime.start.p0(i64 144, ptr %12) #13
  call void @llvm.memset.p0.i64(ptr align 8 %12, i8 0, i64 144, i1 false)
  %24 = getelementptr inbounds %struct.UText, ptr %12, i32 0, i32 0
  store i32 878368812, ptr %24, align 8
  %25 = getelementptr inbounds %struct.UText, ptr %12, i32 0, i32 3
  store i32 144, ptr %25, align 4
  %26 = getelementptr inbounds nuw %"class.icu_77::RegexCompile", ptr %13, i32 0, i32 2
  %27 = load ptr, ptr %26, align 8, !tbaa !41
  %28 = getelementptr inbounds nuw %"class.icu_77::RegexPattern", ptr %27, i32 0, i32 2
  %29 = load ptr, ptr %28, align 8, !tbaa !68
  %30 = load ptr, ptr %8, align 8, !tbaa !22
  %31 = call ptr @utext_openConstUnicodeString_77(ptr noundef %12, ptr noundef %29, ptr noundef %30)
  %32 = load ptr, ptr %8, align 8, !tbaa !22
  %33 = load i32, ptr %32, align 4, !tbaa !15
  %34 = call noundef signext i8 @_ZL9U_SUCCESS10UErrorCode(i32 noundef %33)
  %35 = icmp ne i8 %34, 0
  br i1 %35, label %36, label %47

36:                                               ; preds = %19
  %37 = load ptr, ptr %7, align 8, !tbaa !67
  %38 = load ptr, ptr %8, align 8, !tbaa !22
  call void @_ZN6icu_7712RegexCompile7compileEP5UTextR11UParseErrorR10UErrorCode(ptr noundef nonnull align 8 dereferenceable(512) %13, ptr noundef %12, ptr noundef nonnull align 4 dereferenceable(72) %37, ptr noundef nonnull align 4 dereferenceable(4) %38)
  %39 = call ptr @utext_close_77(ptr noundef %12)
  br label %47

40:                                               ; preds = %16
  %41 = landingpad { ptr, i32 }
          cleanup
  %42 = extractvalue { ptr, i32 } %41, 0
  store ptr %42, ptr %10, align 8
  %43 = extractvalue { ptr, i32 } %41, 1
  store i32 %43, ptr %11, align 4
  %44 = load i1, ptr %9, align 1
  br i1 %44, label %45, label %46

45:                                               ; preds = %40
  call void @_ZN6icu_777UMemorydlEPv(ptr noundef %14) #13
  br label %46

46:                                               ; preds = %45, %40
  br label %48

47:                                               ; preds = %36, %19
  call void @llvm.lifetime.end.p0(i64 144, ptr %12) #13
  ret void

48:                                               ; preds = %46
  %49 = load ptr, ptr %10, align 8
  %50 = load i32, ptr %11, align 4
  %51 = insertvalue { ptr, i32 } poison, ptr %49, 0
  %52 = insertvalue { ptr, i32 } %51, i32 %50, 1
  resume { ptr, i32 } %52
}