; Function Attrs: mustprogress uwtable
define void @_ZN6icu_7712RegexCompile7compileERKNS_13UnicodeStringER11UParseErrorR10UErrorCode(ptr noundef nonnull align 8 dereferenceable(512) %0, ptr noundef nonnull align 8 dereferenceable(64) %1, ptr noundef nonnull align 4 dereferenceable(72) %2, ptr noundef nonnull align 4 dereferenceable(4) %3) local_unnamed_addr #1 align 2 personality ptr @__gxx_personality_v0 {
  %5 = alloca %struct.UText, align 8
  %6 = tail call noundef ptr @_ZN6icu_777UMemorynwEm(i64 noundef 64) #15
  %7 = icmp eq ptr %6, null
  br i1 %7, label %9, label %8

8:                                                ; preds = %4
  invoke void @_ZN6icu_7713UnicodeStringC1ERKS0_(ptr noundef nonnull align 8 dereferenceable(64) %6, ptr noundef nonnull align 8 dereferenceable(64) %1)
          to label %9 unwind label %19

9:                                                ; preds = %8, %4
  %10 = getelementptr inbounds nuw i8, ptr %0, i64 16
  %11 = load ptr, ptr %10, align 8, !tbaa !33
  %12 = getelementptr inbounds nuw i8, ptr %11, i64 16
  store ptr %6, ptr %12, align 8, !tbaa !57
  call void @llvm.lifetime.start.p0(i64 144, ptr nonnull %5) #15
  call void @llvm.memset.p0.i64(ptr noundef nonnull align 8 dereferenceable(144) %5, i8 0, i64 144, i1 false)
  store i32 878368812, ptr %5, align 8
  %13 = getelementptr inbounds nuw i8, ptr %5, i64 12
  store i32 144, ptr %13, align 4
  %14 = call ptr @utext_openConstUnicodeString_77(ptr noundef nonnull %5, ptr noundef %6, ptr noundef nonnull %3)
  %15 = load i32, ptr %3, align 4, !tbaa !13
  %16 = icmp sgt i32 %15, 0
  br i1 %16, label %21, label %17

17:                                               ; preds = %9
  call void @_ZN6icu_7712RegexCompile7compileEP5UTextR11UParseErrorR10UErrorCode(ptr noundef nonnull align 8 dereferenceable(512) %0, ptr noundef nonnull %5, ptr noundef nonnull align 4 dereferenceable(72) %2, ptr noundef nonnull align 4 dereferenceable(4) %3)
  %18 = call ptr @utext_close_77(ptr noundef nonnull %5)
  br label %21

19:                                               ; preds = %8
  %20 = landingpad { ptr, i32 }
          cleanup
  tail call void @_ZN6icu_777UMemorydlEPv(ptr noundef nonnull %6) #15
  resume { ptr, i32 } %20

21:                                               ; preds = %17, %9
  call void @llvm.lifetime.end.p0(i64 144, ptr nonnull %5) #15
  ret void
}